; ModuleID = '9/124.c'
source_filename = "9/124.c"
target datalayout = "e-m:e-p270:32:32-p271:32:32-p272:64:64-i64:64-f80:128-n8:16:32:64-S128"
target triple = "x86_64-pc-linux-gnu"

%struct.people = type { [30 x i8], i32 }

@.str = private unnamed_addr constant [3 x i8] c"%d\00", align 1
@.str.1 = private unnamed_addr constant [6 x i8] c"%s %d\00", align 1
@.str.2 = private unnamed_addr constant [4 x i8] c"%s\0A\00", align 1

; Function Attrs: noinline nounwind uwtable
define dso_local void @main() #0 {
  %1 = alloca [100 x %struct.people], align 16
  %2 = alloca [100 x %struct.people], align 16
  %3 = alloca %struct.people, align 4
  %4 = alloca i32, align 4
  %5 = alloca i32, align 4
  %6 = alloca i32, align 4
  %7 = alloca i32, align 4
  %8 = alloca i32, align 4
  %9 = alloca i32, align 4
  %10 = alloca i32, align 4
  %11 = alloca i32, align 4
  store i32 0, i32* %9, align 4
  store i32 0, i32* %10, align 4
  %12 = call i32 (i8*, ...) @__isoc99_scanf(i8* getelementptr inbounds ([3 x i8], [3 x i8]* @.str, i64 0, i64 0), i32* %11)
  store i32 0, i32* %8, align 4
  br label %13

13:                                               ; preds = %62, %0
  %14 = load i32, i32* %8, align 4
  %15 = load i32, i32* %11, align 4
  %16 = icmp slt i32 %14, %15
  br i1 %16, label %17, label %65

17:                                               ; preds = %13
  %18 = load i32, i32* %10, align 4
  %19 = sext i32 %18 to i64
  %20 = getelementptr inbounds [100 x %struct.people], [100 x %struct.people]* %1, i64 0, i64 %19
  %21 = getelementptr inbounds %struct.people, %struct.people* %20, i32 0, i32 0
  %22 = getelementptr inbounds [30 x i8], [30 x i8]* %21, i64 0, i64 0
  %23 = load i32, i32* %10, align 4
  %24 = sext i32 %23 to i64
  %25 = getelementptr inbounds [100 x %struct.people], [100 x %struct.people]* %1, i64 0, i64 %24
  %26 = getelementptr inbounds %struct.people, %struct.people* %25, i32 0, i32 1
  %27 = call i32 (i8*, ...) @__isoc99_scanf(i8* getelementptr inbounds ([6 x i8], [6 x i8]* @.str.1, i64 0, i64 0), i8* %22, i32* %26)
  %28 = load i32, i32* %10, align 4
  %29 = sext i32 %28 to i64
  %30 = getelementptr inbounds [100 x %struct.people], [100 x %struct.people]* %1, i64 0, i64 %29
  %31 = getelementptr inbounds %struct.people, %struct.people* %30, i32 0, i32 1
  %32 = load i32, i32* %31, align 4
  %33 = icmp sge i32 %32, 60
  br i1 %33, label %34, label %59

34:                                               ; preds = %17
  %35 = load i32, i32* %10, align 4
  %36 = sext i32 %35 to i64
  %37 = getelementptr inbounds [100 x %struct.people], [100 x %struct.people]* %1, i64 0, i64 %36
  %38 = getelementptr inbounds %struct.people, %struct.people* %37, i32 0, i32 1
  %39 = load i32, i32* %38, align 4
  %40 = load i32, i32* %9, align 4
  %41 = sext i32 %40 to i64
  %42 = getelementptr inbounds [100 x %struct.people], [100 x %struct.people]* %2, i64 0, i64 %41
  %43 = getelementptr inbounds %struct.people, %struct.people* %42, i32 0, i32 1
  store i32 %39, i32* %43, align 4
  %44 = load i32, i32* %9, align 4
  %45 = sext i32 %44 to i64
  %46 = getelementptr inbounds [100 x %struct.people], [100 x %struct.people]* %2, i64 0, i64 %45
  %47 = getelementptr inbounds %struct.people, %struct.people* %46, i32 0, i32 0
  %48 = getelementptr inbounds [30 x i8], [30 x i8]* %47, i64 0, i64 0
  %49 = load i32, i32* %10, align 4
  %50 = sext i32 %49 to i64
  %51 = getelementptr inbounds [100 x %struct.people], [100 x %struct.people]* %1, i64 0, i64 %50
  %52 = getelementptr inbounds %struct.people, %struct.people* %51, i32 0, i32 0
  %53 = getelementptr inbounds [30 x i8], [30 x i8]* %52, i64 0, i64 0
  %54 = call i8* @strcpy(i8* %48, i8* %53) #4
  %55 = load i32, i32* %9, align 4
  %56 = add nsw i32 %55, 1
  store i32 %56, i32* %9, align 4
  %57 = load i32, i32* %10, align 4
  %58 = sub nsw i32 %57, 1
  store i32 %58, i32* %10, align 4
  br label %59

59:                                               ; preds = %34, %17
  %60 = load i32, i32* %10, align 4
  %61 = add nsw i32 %60, 1
  store i32 %61, i32* %10, align 4
  br label %62

62:                                               ; preds = %59
  %63 = load i32, i32* %8, align 4
  %64 = add nsw i32 %63, 1
  store i32 %64, i32* %8, align 4
  br label %13

65:                                               ; preds = %13
  store i32 0, i32* %8, align 4
  br label %66

66:                                               ; preds = %117, %65
  %67 = load i32, i32* %8, align 4
  %68 = load i32, i32* %9, align 4
  %69 = icmp slt i32 %67, %68
  br i1 %69, label %70, label %120

70:                                               ; preds = %66
  store i32 0, i32* %10, align 4
  br label %71

71:                                               ; preds = %113, %70
  %72 = load i32, i32* %10, align 4
  %73 = load i32, i32* %9, align 4
  %74 = load i32, i32* %8, align 4
  %75 = sub nsw i32 %73, %74
  %76 = sub nsw i32 %75, 1
  %77 = icmp slt i32 %72, %76
  br i1 %77, label %78, label %116

78:                                               ; preds = %71
  %79 = load i32, i32* %10, align 4
  %80 = sext i32 %79 to i64
  %81 = getelementptr inbounds [100 x %struct.people], [100 x %struct.people]* %2, i64 0, i64 %80
  %82 = getelementptr inbounds %struct.people, %struct.people* %81, i32 0, i32 1
  %83 = load i32, i32* %82, align 4
  %84 = load i32, i32* %10, align 4
  %85 = add nsw i32 %84, 1
  %86 = sext i32 %85 to i64
  %87 = getelementptr inbounds [100 x %struct.people], [100 x %struct.people]* %2, i64 0, i64 %86
  %88 = getelementptr inbounds %struct.people, %struct.people* %87, i32 0, i32 1
  %89 = load i32, i32* %88, align 4
  %90 = icmp slt i32 %83, %89
  br i1 %90, label %91, label %112

91:                                               ; preds = %78
  %92 = load i32, i32* %10, align 4
  %93 = add nsw i32 %92, 1
  %94 = sext i32 %93 to i64
  %95 = getelementptr inbounds [100 x %struct.people], [100 x %struct.people]* %2, i64 0, i64 %94
  %96 = bitcast %struct.people* %3 to i8*
  %97 = bitcast %struct.people* %95 to i8*
  call void @llvm.memcpy.p0i8.p0i8.i64(i8* align 4 %96, i8* align 4 %97, i64 36, i1 false)
  %98 = load i32, i32* %10, align 4
  %99 = add nsw i32 %98, 1
  %100 = sext i32 %99 to i64
  %101 = getelementptr inbounds [100 x %struct.people], [100 x %struct.people]* %2, i64 0, i64 %100
  %102 = load i32, i32* %10, align 4
  %103 = sext i32 %102 to i64
  %104 = getelementptr inbounds [100 x %struct.people], [100 x %struct.people]* %2, i64 0, i64 %103
  %105 = bitcast %struct.people* %101 to i8*
  %106 = bitcast %struct.people* %104 to i8*
  call void @llvm.memcpy.p0i8.p0i8.i64(i8* align 4 %105, i8* align 4 %106, i64 36, i1 false)
  %107 = load i32, i32* %10, align 4
  %108 = sext i32 %107 to i64
  %109 = getelementptr inbounds [100 x %struct.people], [100 x %struct.people]* %2, i64 0, i64 %108
  %110 = bitcast %struct.people* %109 to i8*
  %111 = bitcast %struct.people* %3 to i8*
  call void @llvm.memcpy.p0i8.p0i8.i64(i8* align 4 %110, i8* align 4 %111, i64 36, i1 false)
  br label %112

112:                                              ; preds = %91, %78
  br label %113

113:                                              ; preds = %112
  %114 = load i32, i32* %10, align 4
  %115 = add nsw i32 %114, 1
  store i32 %115, i32* %10, align 4
  br label %71

116:                                              ; preds = %71
  br label %117

117:                                              ; preds = %116
  %118 = load i32, i32* %8, align 4
  %119 = add nsw i32 %118, 1
  store i32 %119, i32* %8, align 4
  br label %66

120:                                              ; preds = %66
  store i32 0, i32* %8, align 4
  br label %121

121:                                              ; preds = %132, %120
  %122 = load i32, i32* %8, align 4
  %123 = load i32, i32* %9, align 4
  %124 = icmp slt i32 %122, %123
  br i1 %124, label %125, label %135

125:                                              ; preds = %121
  %126 = load i32, i32* %8, align 4
  %127 = sext i32 %126 to i64
  %128 = getelementptr inbounds [100 x %struct.people], [100 x %struct.people]* %2, i64 0, i64 %127
  %129 = getelementptr inbounds %struct.people, %struct.people* %128, i32 0, i32 0
  %130 = getelementptr inbounds [30 x i8], [30 x i8]* %129, i64 0, i64 0
  %131 = call i32 (i8*, ...) @printf(i8* getelementptr inbounds ([4 x i8], [4 x i8]* @.str.2, i64 0, i64 0), i8* %130)
  br label %132

132:                                              ; preds = %125
  %133 = load i32, i32* %8, align 4
  %134 = add nsw i32 %133, 1
  store i32 %134, i32* %8, align 4
  br label %121

135:                                              ; preds = %121
  store i32 0, i32* %8, align 4
  br label %136

136:                                              ; preds = %149, %135
  %137 = load i32, i32* %8, align 4
  %138 = load i32, i32* %11, align 4
  %139 = load i32, i32* %9, align 4
  %140 = sub nsw i32 %138, %139
  %141 = icmp slt i32 %137, %140
  br i1 %141, label %142, label %152

142:                                              ; preds = %136
  %143 = load i32, i32* %8, align 4
  %144 = sext i32 %143 to i64
  %145 = getelementptr inbounds [100 x %struct.people], [100 x %struct.people]* %1, i64 0, i64 %144
  %146 = getelementptr inbounds %struct.people, %struct.people* %145, i32 0, i32 0
  %147 = getelementptr inbounds [30 x i8], [30 x i8]* %146, i64 0, i64 0
  %148 = call i32 (i8*, ...) @printf(i8* getelementptr inbounds ([4 x i8], [4 x i8]* @.str.2, i64 0, i64 0), i8* %147)
  br label %149

149:                                              ; preds = %142
  %150 = load i32, i32* %8, align 4
  %151 = add nsw i32 %150, 1
  store i32 %151, i32* %8, align 4
  br label %136

152:                                              ; preds = %136
  ret void
}

declare dso_local i32 @__isoc99_scanf(i8*, ...) #1

; Function Attrs: nounwind
declare dso_local i8* @strcpy(i8*, i8*) #2

; Function Attrs: argmemonly nounwind willreturn
declare void @llvm.memcpy.p0i8.p0i8.i64(i8* noalias nocapture writeonly, i8* noalias nocapture readonly, i64, i1 immarg) #3

declare dso_local i32 @printf(i8*, ...) #1


!llvm.module.flags = !{!0}
!llvm.ident = !{!1}

!0 = !{i32 1, !"wchar_size", i32 4}
!1 = !{!"clang version 10.0.0-4ubuntu1 "}
